target datalayout = "e-m:e-p270:32:32-p271:32:32-p272:64:64-i64:64-i128:128-f80:128-n8:16:32:64-S128"
target triple = "x86_64-pc-linux-gnu"

%"class.llvm::StringRef" = type { ptr, i64 }
%"class.llvm::ilist_node_base.17" = type { %"class.llvm::ilist_detail::node_base_prevnext.18" }
%"class.llvm::ilist_detail::node_base_prevnext.18" = type { ptr, ptr }
%"class.llvm::ilist_node_impl.28" = type { %"class.llvm::ilist_node_base.17" }
%"class.std::unique_ptr" = type { %"struct.std::__uniq_ptr_data" }
%"struct.std::__uniq_ptr_data" = type { %"class.std::__uniq_ptr_impl" }
%"class.std::__uniq_ptr_impl" = type { %"class.std::tuple" }
%"class.std::tuple" = type { %"struct.std::_Tuple_impl" }
%"struct.std::_Tuple_impl" = type { %"struct.std::_Head_base.56" }
%"struct.std::_Head_base.56" = type { ptr }
%"class.llvm::User" = type { %"class.llvm::Value" }
%"class.llvm::Value" = type { i8, i8, i16, i32, ptr, ptr }
%"class.llvm::AttributeList" = type { ptr }
%"class.llvm::GlobalValue" = type { %"class.llvm::Constant", ptr, i32, i32, ptr }
%"class.llvm::Constant" = type { %"class.llvm::User" }
%"class.llvm::Function" = type { %"class.llvm::GlobalObject", %"class.llvm::ilist_node.99", %"class.llvm::SymbolTableList.100", i32, i32, ptr, i64, %"class.std::unique_ptr", %"class.llvm::AttributeList", i8, i32 }
%"class.llvm::GlobalObject" = type { %"class.llvm::GlobalValue", ptr }
%"class.llvm::ilist_node.99" = type { %"class.llvm::ilist_node_impl.28" }
%"class.llvm::SymbolTableList.100" = type { %"class.llvm::iplist_impl.101" }
%"class.llvm::iplist_impl.101" = type { %"class.llvm::simple_ilist.104" }
%"class.llvm::simple_ilist.104" = type { %"class.llvm::ilist_sentinel.106" }
%"class.llvm::ilist_sentinel.106" = type { %"class.llvm::ilist_node_impl.107" }
%"class.llvm::ilist_node_impl.107" = type { %"class.llvm::ilist_node_base.17" }

; Function Attrs: mustprogress nounwind uwtable
define linkonce_odr hidden noundef ptr @_ZN4llvm16cast_convert_valINS_12FunctionTypeEPNS_4TypeES3_E4doitEPKS2_(ptr noundef %0) #1 comdat align 2 {
  %2 = alloca ptr, align 8
  store ptr %0, ptr %2, align 8
  %3 = load ptr, ptr %2, align 8
  ret ptr %3
}

; Function Attrs: mustprogress nounwind uwtable
define linkonce_odr hidden noundef ptr @_ZN4llvm8CastInfoINS_12FunctionTypeEPNS_4TypeEvE6doCastERKS3_(ptr noundef nonnull align 8 dereferenceable(8) %0) #1 comdat align 2 {
  %2 = alloca ptr, align 8
  store ptr %0, ptr %2, align 8
  %3 = load ptr, ptr %2, align 8
  %4 = load ptr, ptr %3, align 8
  %5 = call noundef ptr @_ZN4llvm16cast_convert_valINS_12FunctionTypeEPNS_4TypeES3_E4doitEPKS2_(ptr noundef %4)
  ret ptr %5
}

; Function Attrs: mustprogress nounwind uwtable
define linkonce_odr hidden noundef ptr @_ZN4llvm4castINS_12FunctionTypeENS_4TypeEEEDcPT0_(ptr noundef %0) #1 comdat {
  %2 = alloca ptr, align 8
  store ptr %0, ptr %2, align 8
  %3 = call noundef ptr @_ZN4llvm8CastInfoINS_12FunctionTypeEPNS_4TypeEvE6doCastERKS3_(ptr noundef nonnull align 8 dereferenceable(8) %2)
  ret ptr %3
}

; Function Attrs: mustprogress nounwind uwtable
define linkonce_odr hidden noundef ptr @_ZNK4llvm11GlobalValue12getValueTypeEv(ptr noundef nonnull align 8 dereferenceable(48) %0) #1 comdat align 2 {
  %2 = alloca ptr, align 8
  store ptr %0, ptr %2, align 8
  %3 = load ptr, ptr %2, align 8
  %4 = getelementptr inbounds nuw %"class.llvm::GlobalValue", ptr %3, i32 0, i32 1
  %5 = load ptr, ptr %4, align 8
  ret ptr %5
}

; Function Attrs: mustprogress nounwind uwtable
define linkonce_odr hidden noundef ptr @_ZNK4llvm8Function15getFunctionTypeEv(ptr noundef nonnull align 8 dereferenceable(136) %0) #1 comdat align 2 {
  %2 = alloca ptr, align 8
  store ptr %0, ptr %2, align 8
  %3 = load ptr, ptr %2, align 8
  %4 = call noundef ptr @_ZNK4llvm11GlobalValue12getValueTypeEv(ptr noundef nonnull align 8 dereferenceable(48) %3)
  %5 = call noundef ptr @_ZN4llvm4castINS_12FunctionTypeENS_4TypeEEEDcPT0_(ptr noundef %4)
  ret ptr %5
}

; Function Attrs: mustprogress nounwind uwtable
define linkonce_odr hidden noundef ptr @_ZNK4llvm11GlobalValue9getParentEv(ptr noundef nonnull align 8 dereferenceable(48) %0) #1 comdat align 2 {
  %2 = alloca ptr, align 8
  store ptr %0, ptr %2, align 8
  %3 = load ptr, ptr %2, align 8
  %4 = getelementptr inbounds nuw %"class.llvm::GlobalValue", ptr %3, i32 0, i32 4
  %5 = load ptr, ptr %4, align 8
  ret ptr %5
}

; Function Attrs: mustprogress nounwind uwtable
define linkonce_odr hidden noundef zeroext i1 @_ZNK4llvm8Function11isIntrinsicEv(ptr noundef nonnull align 8 dereferenceable(136) %0) #1 comdat align 2 {
  %2 = alloca ptr, align 8
  store ptr %0, ptr %2, align 8
  %3 = load ptr, ptr %2, align 8
  %4 = getelementptr inbounds nuw %"class.llvm::GlobalValue", ptr %3, i32 0, i32 2
  %5 = load i32, ptr %4, align 8
  %6 = lshr i32 %5, 13
  %7 = and i32 %6, 1
  %8 = icmp ne i32 %7, 0
  ret i1 %8
}

; Function Attrs: mustprogress nounwind uwtable
define dso_local noundef zeroext i1 @_ZNK4llvm21TargetLibraryInfoImpl10getLibFuncERKNS_8FunctionERNS_7LibFuncE(ptr noundef nonnull align 8 dereferenceable(208) %0, ptr noundef nonnull align 8 dereferenceable(136) %1, ptr noundef nonnull align 4 dereferenceable(4) %2) #1 align 2 {
  %4 = alloca i1, align 1
  %5 = alloca ptr, align 8
  %6 = alloca ptr, align 8
  %7 = alloca ptr, align 8
  %8 = alloca ptr, align 8
  %9 = alloca %"class.llvm::StringRef", align 8
  store ptr %0, ptr %5, align 8
  store ptr %1, ptr %6, align 8
  store ptr %2, ptr %7, align 8
  %10 = load ptr, ptr %5, align 8
  %11 = load ptr, ptr %6, align 8
  %12 = call noundef zeroext i1 @_ZNK4llvm8Function11isIntrinsicEv(ptr noundef nonnull align 8 dereferenceable(136) %11)
  br i1 %12, label %13, label %14

13:                                               ; preds = %3
  store i1 false, ptr %4, align 1
  br label %56

14:                                               ; preds = %3
  %15 = load ptr, ptr %6, align 8
  %16 = call noundef ptr @_ZNK4llvm11GlobalValue9getParentEv(ptr noundef nonnull align 8 dereferenceable(48) %15)
  store ptr %16, ptr %8, align 8
  %17 = load ptr, ptr %6, align 8
  %18 = getelementptr inbounds nuw %"class.llvm::Function", ptr %17, i32 0, i32 10
  %19 = load i32, ptr %18, align 4
  %20 = icmp eq i32 %19, -1
  br i1 %20, label %21, label %39

21:                                               ; preds = %14
  %22 = load ptr, ptr %6, align 8
  %23 = call { ptr, i64 } @_ZNK4llvm5Value7getNameEv(ptr noundef nonnull align 8 dereferenceable(24) %22)
  %24 = getelementptr inbounds nuw { ptr, i64 }, ptr %9, i32 0, i32 0
  %25 = extractvalue { ptr, i64 } %23, 0
  store ptr %25, ptr %24, align 8
  %26 = getelementptr inbounds nuw { ptr, i64 }, ptr %9, i32 0, i32 1
  %27 = extractvalue { ptr, i64 } %23, 1
  store i64 %27, ptr %26, align 8
  %28 = load ptr, ptr %6, align 8
  %29 = getelementptr inbounds nuw %"class.llvm::Function", ptr %28, i32 0, i32 10
  %30 = getelementptr inbounds nuw { ptr, i64 }, ptr %9, i32 0, i32 0
  %31 = load ptr, ptr %30, align 8
  %32 = getelementptr inbounds nuw { ptr, i64 }, ptr %9, i32 0, i32 1
  %33 = load i64, ptr %32, align 8
  %34 = call noundef zeroext i1 @_ZNK4llvm21TargetLibraryInfoImpl10getLibFuncENS_9StringRefERNS_7LibFuncE(ptr noundef nonnull align 8 dereferenceable(208) %10, ptr %31, i64 %33, ptr noundef nonnull align 4 dereferenceable(4) %29)
  br i1 %34, label %38, label %35

35:                                               ; preds = %21
  %36 = load ptr, ptr %6, align 8
  %37 = getelementptr inbounds nuw %"class.llvm::Function", ptr %36, i32 0, i32 10
  store i32 502, ptr %37, align 4
  br label %38

38:                                               ; preds = %35, %21
  br label %39

39:                                               ; preds = %38, %14
  %40 = load ptr, ptr %6, align 8
  %41 = getelementptr inbounds nuw %"class.llvm::Function", ptr %40, i32 0, i32 10
  %42 = load i32, ptr %41, align 4
  %43 = icmp eq i32 %42, 502
  br i1 %43, label %44, label %45

44:                                               ; preds = %39
  store i1 false, ptr %4, align 1
  br label %56

45:                                               ; preds = %39
  %46 = load ptr, ptr %6, align 8
  %47 = getelementptr inbounds nuw %"class.llvm::Function", ptr %46, i32 0, i32 10
  %48 = load i32, ptr %47, align 4
  %49 = load ptr, ptr %7, align 8
  store i32 %48, ptr %49, align 4
  %50 = load ptr, ptr %6, align 8
  %51 = call noundef ptr @_ZNK4llvm8Function15getFunctionTypeEv(ptr noundef nonnull align 8 dereferenceable(136) %50)
  %52 = load ptr, ptr %7, align 8
  %53 = load i32, ptr %52, align 4
  %54 = load ptr, ptr %8, align 8
  %55 = call noundef zeroext i1 @_ZNK4llvm21TargetLibraryInfoImpl22isValidProtoForLibFuncERKNS_12FunctionTypeENS_7LibFuncERKNS_6ModuleE(ptr noundef nonnull align 8 dereferenceable(208) %10, ptr noundef nonnull align 8 dereferenceable(24) %51, i32 noundef %53, ptr noundef nonnull align 8 dereferenceable(857) %54)
  store i1 %55, ptr %4, align 1
  br label %56

56:                                               ; preds = %45, %44, %13
  %57 = load i1, ptr %4, align 1
  ret i1 %57
}