; Function Attrs: mustprogress nounwind uwtable
define dso_local noundef zeroext i1 @_ZNK4llvm21TargetLibraryInfoImpl10getLibFuncERKNS_8FunctionERNS_7LibFuncE(ptr nocapture noundef nonnull readonly align 8 dereferenceable(208) %0, ptr noundef nonnull align 8 dereferenceable(136) %1, ptr nocapture noundef nonnull writeonly align 4 dereferenceable(4) %2) local_unnamed_addr #0 align 2 {
  %4 = getelementptr inbounds nuw i8, ptr %1, i64 32
  %5 = load i32, ptr %4, align 8
  %6 = and i32 %5, 8192
  %.not = icmp eq i32 %6, 0
  br i1 %.not, label %7, label %25

7:                                                ; preds = %3
  %8 = getelementptr inbounds nuw i8, ptr %1, i64 40
  %9 = load ptr, ptr %8, align 8
  %10 = getelementptr inbounds nuw i8, ptr %1, i64 132
  %11 = load i32, ptr %10, align 4
  %12 = icmp eq i32 %11, -1
  br i1 %12, label %13, label %18

13:                                               ; preds = %7
  %14 = tail call { ptr, i64 } @_ZNK4llvm5Value7getNameEv(ptr noundef nonnull align 8 dereferenceable(24) %1) #23
  %15 = extractvalue { ptr, i64 } %14, 0
  %16 = extractvalue { ptr, i64 } %14, 1
  %17 = tail call noundef zeroext i1 @_ZNK4llvm21TargetLibraryInfoImpl10getLibFuncENS_9StringRefERNS_7LibFuncE(ptr nonnull align 8 poison, ptr %15, i64 %16, ptr noundef nonnull align 4 dereferenceable(4) %10)
  br i1 %17, label %thread-pre-split, label %.thread

.thread:                                          ; preds = %13
  store i32 502, ptr %10, align 4
  br label %25

thread-pre-split:                                 ; preds = %13
  %.pr = load i32, ptr %10, align 4
  br label %18

18:                                               ; preds = %thread-pre-split, %7
  %19 = phi i32 [ %.pr, %thread-pre-split ], [ %11, %7 ]
  %20 = icmp eq i32 %19, 502
  br i1 %20, label %25, label %21

21:                                               ; preds = %18
  store i32 %19, ptr %2, align 4
  %22 = getelementptr inbounds nuw i8, ptr %1, i64 24
  %23 = load ptr, ptr %22, align 8
  %24 = tail call noundef zeroext i1 @_ZNK4llvm21TargetLibraryInfoImpl22isValidProtoForLibFuncERKNS_12FunctionTypeENS_7LibFuncERKNS_6ModuleE(ptr noundef nonnull align 8 dereferenceable(208) %0, ptr noundef nonnull align 8 dereferenceable(24) %23, i32 noundef %19, ptr noundef nonnull align 8 dereferenceable(857) %9)
  br label %25

25:                                               ; preds = %.thread, %18, %3, %21
  %.0 = phi i1 [ %24, %21 ], [ false, %3 ], [ false, %18 ], [ false, %.thread ]
  ret i1 %.0
}